target datalayout = "e-m:e-p270:32:32-p271:32:32-p272:64:64-i64:64-i128:128-f80:128-n8:16:32:64-S128"
target triple = "x86_64-pc-linux-gnu"

%"class.icu_77::number::impl::DecimalQuantity" = type <{ %"class.icu_77::IFixedDecimal", i8, [3 x i8], i32, i32, i8, i8, [2 x i8], double, i32, i32, i32, i32, %union.anon, i8, i8, [6 x i8] }>
%"class.icu_77::IFixedDecimal" = type { ptr }
%union.anon = type { %struct.anon }
%struct.anon = type { ptr, i32 }

@_ZN12_GLOBAL__N_113NEGATIVE_FLAGE = internal global i8 1, align 1

; Function Attrs: mustprogress uwtable
define void @_ZN6icu_776number4impl15DecimalQuantity14ensureCapacityEi(ptr noundef nonnull align 8 dereferenceable(66) %0, i32 noundef %1) #1 align 2 {
  %3 = alloca ptr, align 8
  %4 = alloca i32, align 4
  %5 = alloca i32, align 4
  %6 = alloca ptr, align 8
  store ptr %0, ptr %3, align 8, !tbaa !25
  store i32 %1, ptr %4, align 4, !tbaa !14
  %7 = load ptr, ptr %3, align 8
  %8 = load i32, ptr %4, align 4, !tbaa !14
  %9 = icmp eq i32 %8, 0
  br i1 %9, label %10, label %11

10:                                               ; preds = %2
  br label %83

11:                                               ; preds = %2
  call void @llvm.lifetime.start.p0(i64 4, ptr %5) #14
  %12 = getelementptr inbounds nuw %"class.icu_77::number::impl::DecimalQuantity", ptr %7, i32 0, i32 14
  %13 = load i8, ptr %12, align 8, !tbaa !37, !range !40, !noundef !41
  %14 = trunc i8 %13 to i1
  br i1 %14, label %15, label %19

15:                                               ; preds = %11
  %16 = getelementptr inbounds nuw %"class.icu_77::number::impl::DecimalQuantity", ptr %7, i32 0, i32 13
  %17 = getelementptr inbounds nuw %struct.anon, ptr %16, i32 0, i32 1
  %18 = load i32, ptr %17, align 8, !tbaa !42
  br label %20

19:                                               ; preds = %11
  br label %20

20:                                               ; preds = %19, %15
  %21 = phi i32 [ %18, %15 ], [ 0, %19 ]
  store i32 %21, ptr %5, align 4, !tbaa !14
  %22 = getelementptr inbounds nuw %"class.icu_77::number::impl::DecimalQuantity", ptr %7, i32 0, i32 14
  %23 = load i8, ptr %22, align 8, !tbaa !37, !range !40, !noundef !41
  %24 = trunc i8 %23 to i1
  br i1 %24, label %41, label %25

25:                                               ; preds = %20
  %26 = load i32, ptr %4, align 4, !tbaa !14
  %27 = sext i32 %26 to i64
  %28 = mul i64 %27, 1
  %29 = call noalias ptr @uprv_malloc_77(i64 noundef %28) #15
  %30 = getelementptr inbounds nuw %"class.icu_77::number::impl::DecimalQuantity", ptr %7, i32 0, i32 13
  %31 = getelementptr inbounds nuw %struct.anon, ptr %30, i32 0, i32 0
  store ptr %29, ptr %31, align 8, !tbaa !42
  %32 = load i32, ptr %4, align 4, !tbaa !14
  %33 = getelementptr inbounds nuw %"class.icu_77::number::impl::DecimalQuantity", ptr %7, i32 0, i32 13
  %34 = getelementptr inbounds nuw %struct.anon, ptr %33, i32 0, i32 1
  store i32 %32, ptr %34, align 8, !tbaa !42
  %35 = getelementptr inbounds nuw %"class.icu_77::number::impl::DecimalQuantity", ptr %7, i32 0, i32 13
  %36 = getelementptr inbounds nuw %struct.anon, ptr %35, i32 0, i32 0
  %37 = load ptr, ptr %36, align 8, !tbaa !42
  %38 = load i32, ptr %4, align 4, !tbaa !14
  %39 = sext i32 %38 to i64
  %40 = mul i64 %39, 1
  call void @llvm.memset.p0.i64(ptr align 1 %37, i8 0, i64 %40, i1 false)
  br label %81

41:                                               ; preds = %20
  %42 = load i32, ptr %5, align 4, !tbaa !14
  %43 = load i32, ptr %4, align 4, !tbaa !14
  %44 = icmp slt i32 %42, %43
  br i1 %44, label %45, label %80

45:                                               ; preds = %41
  call void @llvm.lifetime.start.p0(i64 8, ptr %6) #14
  %46 = load i32, ptr %4, align 4, !tbaa !14
  %47 = mul nsw i32 %46, 2
  %48 = sext i32 %47 to i64
  %49 = mul i64 %48, 1
  %50 = call noalias ptr @uprv_malloc_77(i64 noundef %49) #15
  store ptr %50, ptr %6, align 8, !tbaa !17
  br label %51

51:                                               ; preds = %45
  %52 = load ptr, ptr %6, align 8, !tbaa !17
  %53 = getelementptr inbounds nuw %"class.icu_77::number::impl::DecimalQuantity", ptr %7, i32 0, i32 13
  %54 = getelementptr inbounds nuw %struct.anon, ptr %53, i32 0, i32 0
  %55 = load ptr, ptr %54, align 8, !tbaa !42
  %56 = load i32, ptr %5, align 4, !tbaa !14
  %57 = sext i32 %56 to i64
  %58 = mul i64 %57, 1
  call void @llvm.memcpy.p0.p0.i64(ptr align 1 %52, ptr align 1 %55, i64 %58, i1 false)
  br label %59

59:                                               ; preds = %51
  br label %60

60:                                               ; preds = %59
  %61 = load ptr, ptr %6, align 8, !tbaa !17
  %62 = load i32, ptr %5, align 4, !tbaa !14
  %63 = sext i32 %62 to i64
  %64 = getelementptr inbounds i8, ptr %61, i64 %63
  %65 = load i32, ptr %4, align 4, !tbaa !14
  %66 = load i32, ptr %5, align 4, !tbaa !14
  %67 = sub nsw i32 %65, %66
  %68 = sext i32 %67 to i64
  %69 = mul i64 %68, 1
  call void @llvm.memset.p0.i64(ptr align 1 %64, i8 0, i64 %69, i1 false)
  %70 = getelementptr inbounds nuw %"class.icu_77::number::impl::DecimalQuantity", ptr %7, i32 0, i32 13
  %71 = getelementptr inbounds nuw %struct.anon, ptr %70, i32 0, i32 0
  %72 = load ptr, ptr %71, align 8, !tbaa !42
  call void @uprv_free_77(ptr noundef %72)
  %73 = load ptr, ptr %6, align 8, !tbaa !17
  %74 = getelementptr inbounds nuw %"class.icu_77::number::impl::DecimalQuantity", ptr %7, i32 0, i32 13
  %75 = getelementptr inbounds nuw %struct.anon, ptr %74, i32 0, i32 0
  store ptr %73, ptr %75, align 8, !tbaa !42
  %76 = load i32, ptr %4, align 4, !tbaa !14
  %77 = mul nsw i32 %76, 2
  %78 = getelementptr inbounds nuw %"class.icu_77::number::impl::DecimalQuantity", ptr %7, i32 0, i32 13
  %79 = getelementptr inbounds nuw %struct.anon, ptr %78, i32 0, i32 1
  store i32 %77, ptr %79, align 8, !tbaa !42
  call void @llvm.lifetime.end.p0(i64 8, ptr %6) #14
  br label %80

80:                                               ; preds = %60, %41
  br label %81

81:                                               ; preds = %80, %25
  %82 = getelementptr inbounds nuw %"class.icu_77::number::impl::DecimalQuantity", ptr %7, i32 0, i32 14
  store i8 1, ptr %82, align 8, !tbaa !37
  call void @llvm.lifetime.end.p0(i64 4, ptr %5) #14
  br label %83

83:                                               ; preds = %81, %10
  ret void
}

; Function Attrs: mustprogress uwtable
define void @_ZN6icu_776number4impl15DecimalQuantity14ensureCapacityEv(ptr noundef nonnull align 8 dereferenceable(66) %0) #1 align 2 {
  %2 = alloca ptr, align 8
  store ptr %0, ptr %2, align 8, !tbaa !25
  %3 = load ptr, ptr %2, align 8
  call void @_ZN6icu_776number4impl15DecimalQuantity14ensureCapacityEi(ptr noundef nonnull align 8 dereferenceable(66) %3, i32 noundef 40)
  ret void
}

; Function Attrs: mustprogress nounwind uwtable
define void @_ZN6icu_776number4impl15DecimalQuantity12readIntToBcdEi(ptr noundef nonnull align 8 dereferenceable(66) %0, i32 noundef %1) #0 align 2 {
  %3 = alloca ptr, align 8
  %4 = alloca i32, align 4
  %5 = alloca i64, align 8
  %6 = alloca i32, align 4
  store ptr %0, ptr %3, align 8, !tbaa !25
  store i32 %1, ptr %4, align 4, !tbaa !14
  %7 = load ptr, ptr %3, align 8
  call void @llvm.lifetime.start.p0(i64 8, ptr %5) #14
  store i64 0, ptr %5, align 8, !tbaa !18
  call void @llvm.lifetime.start.p0(i64 4, ptr %6) #14
  store i32 16, ptr %6, align 4, !tbaa !14
  br label %8

8:                                                ; preds = %19, %2
  %9 = load i32, ptr %4, align 4, !tbaa !14
  %10 = icmp ne i32 %9, 0
  br i1 %10, label %11, label %24

11:                                               ; preds = %8
  %12 = load i64, ptr %5, align 8, !tbaa !18
  %13 = lshr i64 %12, 4
  %14 = load i32, ptr %4, align 4, !tbaa !14
  %15 = sext i32 %14 to i64
  %16 = urem i64 %15, 10
  %17 = shl i64 %16, 60
  %18 = add i64 %13, %17
  store i64 %18, ptr %5, align 8, !tbaa !18
  br label %19

19:                                               ; preds = %11
  %20 = load i32, ptr %4, align 4, !tbaa !14
  %21 = sdiv i32 %20, 10
  store i32 %21, ptr %4, align 4, !tbaa !14
  %22 = load i32, ptr %6, align 4, !tbaa !14
  %23 = add nsw i32 %22, -1
  store i32 %23, ptr %6, align 4, !tbaa !14
  br label %8, !llvm.loop !70

24:                                               ; preds = %8
  %25 = load i64, ptr %5, align 8, !tbaa !18
  %26 = load i32, ptr %6, align 4, !tbaa !14
  %27 = mul nsw i32 %26, 4
  %28 = zext i32 %27 to i64
  %29 = lshr i64 %25, %28
  %30 = getelementptr inbounds nuw %"class.icu_77::number::impl::DecimalQuantity", ptr %7, i32 0, i32 13
  store i64 %29, ptr %30, align 8, !tbaa !42
  %31 = getelementptr inbounds nuw %"class.icu_77::number::impl::DecimalQuantity", ptr %7, i32 0, i32 3
  store i32 0, ptr %31, align 4, !tbaa !43
  %32 = load i32, ptr %6, align 4, !tbaa !14
  %33 = sub nsw i32 16, %32
  %34 = getelementptr inbounds nuw %"class.icu_77::number::impl::DecimalQuantity", ptr %7, i32 0, i32 4
  store i32 %33, ptr %34, align 8, !tbaa !44
  call void @llvm.lifetime.end.p0(i64 4, ptr %6) #14
  call void @llvm.lifetime.end.p0(i64 8, ptr %5) #14
  ret void
}

; Function Attrs: mustprogress uwtable
define void @_ZN6icu_776number4impl15DecimalQuantity13readLongToBcdEl(ptr noundef nonnull align 8 dereferenceable(66) %0, i64 noundef %1) #1 align 2 {
  %3 = alloca ptr, align 8
  %4 = alloca i64, align 8
  %5 = alloca i32, align 4
  %6 = alloca i64, align 8
  %7 = alloca i32, align 4
  store ptr %0, ptr %3, align 8, !tbaa !25
  store i64 %1, ptr %4, align 8, !tbaa !18
  %8 = load ptr, ptr %3, align 8
  %9 = load i64, ptr %4, align 8, !tbaa !18
  %10 = icmp sge i64 %9, 10000000000000000
  br i1 %10, label %11, label %34

11:                                               ; preds = %2
  call void @_ZN6icu_776number4impl15DecimalQuantity14ensureCapacityEv(ptr noundef nonnull align 8 dereferenceable(66) %8)
  call void @llvm.lifetime.start.p0(i64 4, ptr %5) #14
  store i32 0, ptr %5, align 4, !tbaa !14
  br label %12

12:                                               ; preds = %25, %11
  %13 = load i64, ptr %4, align 8, !tbaa !18
  %14 = icmp ne i64 %13, 0
  br i1 %14, label %15, label %30

15:                                               ; preds = %12
  %16 = load i64, ptr %4, align 8, !tbaa !18
  %17 = srem i64 %16, 10
  %18 = trunc i64 %17 to i8
  %19 = getelementptr inbounds nuw %"class.icu_77::number::impl::DecimalQuantity", ptr %8, i32 0, i32 13
  %20 = getelementptr inbounds nuw %struct.anon, ptr %19, i32 0, i32 0
  %21 = load ptr, ptr %20, align 8, !tbaa !42
  %22 = load i32, ptr %5, align 4, !tbaa !14
  %23 = sext i32 %22 to i64
  %24 = getelementptr inbounds i8, ptr %21, i64 %23
  store i8 %18, ptr %24, align 1, !tbaa !42
  br label %25

25:                                               ; preds = %15
  %26 = load i64, ptr %4, align 8, !tbaa !18
  %27 = sdiv i64 %26, 10
  store i64 %27, ptr %4, align 8, !tbaa !18
  %28 = load i32, ptr %5, align 4, !tbaa !14
  %29 = add nsw i32 %28, 1
  store i32 %29, ptr %5, align 4, !tbaa !14
  br label %12, !llvm.loop !68

30:                                               ; preds = %12
  %31 = getelementptr inbounds nuw %"class.icu_77::number::impl::DecimalQuantity", ptr %8, i32 0, i32 3
  store i32 0, ptr %31, align 4, !tbaa !43
  %32 = load i32, ptr %5, align 4, !tbaa !14
  %33 = getelementptr inbounds nuw %"class.icu_77::number::impl::DecimalQuantity", ptr %8, i32 0, i32 4
  store i32 %32, ptr %33, align 8, !tbaa !44
  call void @llvm.lifetime.end.p0(i64 4, ptr %5) #14
  br label %61

34:                                               ; preds = %2
  call void @llvm.lifetime.start.p0(i64 8, ptr %6) #14
  store i64 0, ptr %6, align 8, !tbaa !18
  call void @llvm.lifetime.start.p0(i64 4, ptr %7) #14
  store i32 16, ptr %7, align 4, !tbaa !14
  br label %35

35:                                               ; preds = %45, %34
  %36 = load i64, ptr %4, align 8, !tbaa !18
  %37 = icmp ne i64 %36, 0
  br i1 %37, label %38, label %50

38:                                               ; preds = %35
  %39 = load i64, ptr %6, align 8, !tbaa !18
  %40 = lshr i64 %39, 4
  %41 = load i64, ptr %4, align 8, !tbaa !18
  %42 = srem i64 %41, 10
  %43 = shl i64 %42, 60
  %44 = add i64 %40, %43
  store i64 %44, ptr %6, align 8, !tbaa !18
  br label %45

45:                                               ; preds = %38
  %46 = load i64, ptr %4, align 8, !tbaa !18
  %47 = sdiv i64 %46, 10
  store i64 %47, ptr %4, align 8, !tbaa !18
  %48 = load i32, ptr %7, align 4, !tbaa !14
  %49 = add nsw i32 %48, -1
  store i32 %49, ptr %7, align 4, !tbaa !14
  br label %35, !llvm.loop !69

50:                                               ; preds = %35
  %51 = load i64, ptr %6, align 8, !tbaa !18
  %52 = load i32, ptr %7, align 4, !tbaa !14
  %53 = mul nsw i32 %52, 4
  %54 = zext i32 %53 to i64
  %55 = lshr i64 %51, %54
  %56 = getelementptr inbounds nuw %"class.icu_77::number::impl::DecimalQuantity", ptr %8, i32 0, i32 13
  store i64 %55, ptr %56, align 8, !tbaa !42
  %57 = getelementptr inbounds nuw %"class.icu_77::number::impl::DecimalQuantity", ptr %8, i32 0, i32 3
  store i32 0, ptr %57, align 4, !tbaa !43
  %58 = load i32, ptr %7, align 4, !tbaa !14
  %59 = sub nsw i32 16, %58
  %60 = getelementptr inbounds nuw %"class.icu_77::number::impl::DecimalQuantity", ptr %8, i32 0, i32 4
  store i32 %59, ptr %60, align 8, !tbaa !44
  call void @llvm.lifetime.end.p0(i64 4, ptr %7) #14
  call void @llvm.lifetime.end.p0(i64 8, ptr %6) #14
  br label %61

61:                                               ; preds = %50, %30
  ret void
}

; Function Attrs: mustprogress uwtable
define void @_ZN6icu_776number4impl15DecimalQuantity9_setToIntEi(ptr noundef nonnull align 8 dereferenceable(66) %0, i32 noundef %1) #1 align 2 {
  %3 = alloca ptr, align 8
  %4 = alloca i32, align 4
  store ptr %0, ptr %3, align 8, !tbaa !25
  store i32 %1, ptr %4, align 4, !tbaa !14
  %5 = load ptr, ptr %3, align 8
  %6 = load i32, ptr %4, align 4, !tbaa !14
  %7 = icmp eq i32 %6, -2147483648
  br i1 %7, label %8, label %12

8:                                                ; preds = %2
  %9 = load i32, ptr %4, align 4, !tbaa !14
  %10 = sext i32 %9 to i64
  %11 = sub nsw i64 0, %10
  call void @_ZN6icu_776number4impl15DecimalQuantity13readLongToBcdEl(ptr noundef nonnull align 8 dereferenceable(66) %5, i64 noundef %11)
  br label %14

12:                                               ; preds = %2
  %13 = load i32, ptr %4, align 4, !tbaa !14
  call void @_ZN6icu_776number4impl15DecimalQuantity12readIntToBcdEi(ptr noundef nonnull align 8 dereferenceable(66) %5, i32 noundef %13)
  br label %14

14:                                               ; preds = %12, %8
  ret void
}

; Function Attrs: mustprogress uwtable
define void @_ZN6icu_776number4impl15DecimalQuantity12setBcdToZeroEv(ptr noundef nonnull align 8 dereferenceable(66) %0) #1 align 2 {
  %2 = alloca ptr, align 8
  store ptr %0, ptr %2, align 8, !tbaa !25
  %3 = load ptr, ptr %2, align 8
  %4 = getelementptr inbounds nuw %"class.icu_77::number::impl::DecimalQuantity", ptr %3, i32 0, i32 14
  %5 = load i8, ptr %4, align 8, !tbaa !37, !range !40, !noundef !41
  %6 = trunc i8 %5 to i1
  br i1 %6, label %7, label %14

7:                                                ; preds = %1
  %8 = getelementptr inbounds nuw %"class.icu_77::number::impl::DecimalQuantity", ptr %3, i32 0, i32 13
  %9 = getelementptr inbounds nuw %struct.anon, ptr %8, i32 0, i32 0
  %10 = load ptr, ptr %9, align 8, !tbaa !42
  call void @uprv_free_77(ptr noundef %10)
  %11 = getelementptr inbounds nuw %"class.icu_77::number::impl::DecimalQuantity", ptr %3, i32 0, i32 13
  %12 = getelementptr inbounds nuw %struct.anon, ptr %11, i32 0, i32 0
  store ptr null, ptr %12, align 8, !tbaa !42
  %13 = getelementptr inbounds nuw %"class.icu_77::number::impl::DecimalQuantity", ptr %3, i32 0, i32 14
  store i8 0, ptr %13, align 8, !tbaa !37
  br label %14

14:                                               ; preds = %7, %1
  %15 = getelementptr inbounds nuw %"class.icu_77::number::impl::DecimalQuantity", ptr %3, i32 0, i32 13
  store i64 0, ptr %15, align 8, !tbaa !42
  %16 = getelementptr inbounds nuw %"class.icu_77::number::impl::DecimalQuantity", ptr %3, i32 0, i32 3
  store i32 0, ptr %16, align 4, !tbaa !43
  %17 = getelementptr inbounds nuw %"class.icu_77::number::impl::DecimalQuantity", ptr %3, i32 0, i32 4
  store i32 0, ptr %17, align 8, !tbaa !44
  %18 = getelementptr inbounds nuw %"class.icu_77::number::impl::DecimalQuantity", ptr %3, i32 0, i32 6
  store i8 0, ptr %18, align 1, !tbaa !45
  %19 = getelementptr inbounds nuw %"class.icu_77::number::impl::DecimalQuantity", ptr %3, i32 0, i32 8
  store double 0.000000e+00, ptr %19, align 8, !tbaa !46
  %20 = getelementptr inbounds nuw %"class.icu_77::number::impl::DecimalQuantity", ptr %3, i32 0, i32 9
  store i32 0, ptr %20, align 8, !tbaa !47
  %21 = getelementptr inbounds nuw %"class.icu_77::number::impl::DecimalQuantity", ptr %3, i32 0, i32 12
  store i32 0, ptr %21, align 4, !tbaa !36
  ret void
}

; Function Attrs: mustprogress uwtable
define noundef nonnull align 8 dereferenceable(66) ptr @_ZN6icu_776number4impl15DecimalQuantity8setToIntEi(ptr noundef nonnull align 8 dereferenceable(66) %0, i32 noundef %1) #1 align 2 {
  %3 = alloca ptr, align 8
  %4 = alloca i32, align 4
  store ptr %0, ptr %3, align 8, !tbaa !25
  store i32 %1, ptr %4, align 4, !tbaa !14
  %5 = load ptr, ptr %3, align 8
  call void @_ZN6icu_776number4impl15DecimalQuantity12setBcdToZeroEv(ptr noundef nonnull align 8 dereferenceable(66) %5)
  %6 = getelementptr inbounds nuw %"class.icu_77::number::impl::DecimalQuantity", ptr %5, i32 0, i32 5
  store i8 0, ptr %6, align 4, !tbaa !39
  %7 = load i32, ptr %4, align 4, !tbaa !14
  %8 = icmp eq i32 %7, -2147483648
  br i1 %8, label %9, label %17

9:                                                ; preds = %2
  %10 = load i8, ptr @_ZN12_GLOBAL__N_113NEGATIVE_FLAGE, align 1, !tbaa !42
  %11 = sext i8 %10 to i32
  %12 = getelementptr inbounds nuw %"class.icu_77::number::impl::DecimalQuantity", ptr %5, i32 0, i32 5
  %13 = load i8, ptr %12, align 4, !tbaa !39
  %14 = sext i8 %13 to i32
  %15 = or i32 %14, %11
  %16 = trunc i32 %15 to i8
  store i8 %16, ptr %12, align 4, !tbaa !39
  br label %31

17:                                               ; preds = %2
  %18 = load i32, ptr %4, align 4, !tbaa !14
  %19 = icmp slt i32 %18, 0
  br i1 %19, label %20, label %30

20:                                               ; preds = %17
  %21 = load i8, ptr @_ZN12_GLOBAL__N_113NEGATIVE_FLAGE, align 1, !tbaa !42
  %22 = sext i8 %21 to i32
  %23 = getelementptr inbounds nuw %"class.icu_77::number::impl::DecimalQuantity", ptr %5, i32 0, i32 5
  %24 = load i8, ptr %23, align 4, !tbaa !39
  %25 = sext i8 %24 to i32
  %26 = or i32 %25, %22
  %27 = trunc i32 %26 to i8
  store i8 %27, ptr %23, align 4, !tbaa !39
  %28 = load i32, ptr %4, align 4, !tbaa !14
  %29 = sub nsw i32 0, %28
  store i32 %29, ptr %4, align 4, !tbaa !14
  br label %30

30:                                               ; preds = %20, %17
  br label %31

31:                                               ; preds = %30, %9
  %32 = load i32, ptr %4, align 4, !tbaa !14
  %33 = icmp ne i32 %32, 0
  br i1 %33, label %34, label %36

34:                                               ; preds = %31
  %35 = load i32, ptr %4, align 4, !tbaa !14
  call void @_ZN6icu_776number4impl15DecimalQuantity9_setToIntEi(ptr noundef nonnull align 8 dereferenceable(66) %5, i32 noundef %35)
  call void @_ZN6icu_776number4impl15DecimalQuantity7compactEv(ptr noundef nonnull align 8 dereferenceable(66) %5)
  br label %36

36:                                               ; preds = %34, %31
  ret ptr %5
}