; Function Attrs: mustprogress uwtable
define noundef nonnull align 8 dereferenceable(66) ptr @_ZN6icu_776number4impl15DecimalQuantity8setToIntEi(ptr noundef nonnull returned align 8 dereferenceable(66) initializes((12, 22), (24, 36), (44, 48)) %0, i32 noundef %1) local_unnamed_addr #1 align 2 {
  %3 = getelementptr inbounds nuw i8, ptr %0, i64 64
  %4 = load i8, ptr %3, align 8, !tbaa !22, !range !24, !noundef !25
  %5 = trunc nuw i8 %4 to i1
  br i1 %5, label %6, label %_ZN6icu_776number4impl15DecimalQuantity12setBcdToZeroEv.exit

6:                                                ; preds = %2
  %7 = getelementptr inbounds nuw i8, ptr %0, i64 48
  %8 = load ptr, ptr %7, align 8, !tbaa !26
  tail call void @uprv_free_77(ptr noundef %8)
  store i8 0, ptr %3, align 8, !tbaa !22
  br label %_ZN6icu_776number4impl15DecimalQuantity12setBcdToZeroEv.exit

_ZN6icu_776number4impl15DecimalQuantity12setBcdToZeroEv.exit: ; preds = %2, %6
  %9 = getelementptr inbounds nuw i8, ptr %0, i64 48
  store i64 0, ptr %9, align 8, !tbaa !26
  %10 = getelementptr inbounds nuw i8, ptr %0, i64 12
  %11 = getelementptr inbounds nuw i8, ptr %0, i64 16
  %12 = getelementptr inbounds nuw i8, ptr %0, i64 24
  store double 0.000000e+00, ptr %12, align 8, !tbaa !30
  %13 = getelementptr inbounds nuw i8, ptr %0, i64 32
  store i32 0, ptr %13, align 8, !tbaa !31
  %14 = getelementptr inbounds nuw i8, ptr %0, i64 44
  store i32 0, ptr %14, align 4, !tbaa !32
  %15 = getelementptr inbounds nuw i8, ptr %0, i64 20
  %16 = icmp eq i32 %1, -2147483648
  tail call void @llvm.memset.p0.i64(ptr noundef nonnull align 4 dereferenceable(10) %10, i8 0, i64 10, i1 false)
  br i1 %16, label %.thread.thread, label %17

.thread.thread:                                   ; preds = %_ZN6icu_776number4impl15DecimalQuantity12setBcdToZeroEv.exit
  store i8 1, ptr %15, align 4, !tbaa !35
  store i64 142929835592, ptr %9, align 8, !tbaa !26
  br label %_ZN6icu_776number4impl15DecimalQuantity9_setToIntEi.exit

17:                                               ; preds = %_ZN6icu_776number4impl15DecimalQuantity12setBcdToZeroEv.exit
  %18 = icmp slt i32 %1, 0
  br i1 %18, label %19, label %21

19:                                               ; preds = %17
  store i8 1, ptr %15, align 4, !tbaa !35
  %20 = sub nsw i32 0, %1
  br label %.lr.ph.i3.i.preheader

21:                                               ; preds = %17
  %.not = icmp eq i32 %1, 0
  br i1 %.not, label %31, label %.lr.ph.i3.i.preheader

.lr.ph.i3.i.preheader:                            ; preds = %19, %21
  %.0911.i.i.ph = phi i32 [ %1, %21 ], [ %20, %19 ]
  br label %.lr.ph.i3.i

.lr.ph.i3.i:                                      ; preds = %.lr.ph.i3.i.preheader, %.lr.ph.i3.i
  %.013.i.i = phi i32 [ %26, %.lr.ph.i3.i ], [ 16, %.lr.ph.i3.i.preheader ]
  %.0812.i.i = phi i64 [ %24, %.lr.ph.i3.i ], [ 0, %.lr.ph.i3.i.preheader ]
  %.0911.i.i = phi i32 [ %25, %.lr.ph.i3.i ], [ %.0911.i.i.ph, %.lr.ph.i3.i.preheader ]
  %22 = sext i32 %.0911.i.i to i64
  %23 = urem i64 %22, 10
  %24 = tail call i64 @llvm.fshl.i64(i64 %23, i64 %.0812.i.i, i64 60)
  %25 = sdiv i32 %.0911.i.i, 10
  %26 = add nsw i32 %.013.i.i, -1
  %.0911.off.i.i = add i32 %.0911.i.i, 9
  %.not.i4.i = icmp ult i32 %.0911.off.i.i, 19
  br i1 %.not.i4.i, label %_ZN6icu_776number4impl15DecimalQuantity12readIntToBcdEi.exit.i, label %.lr.ph.i3.i, !llvm.loop !63

_ZN6icu_776number4impl15DecimalQuantity12readIntToBcdEi.exit.i: ; preds = %.lr.ph.i3.i
  %27 = shl nsw i32 %26, 2
  %28 = zext nneg i32 %27 to i64
  %29 = lshr i64 %24, %28
  store i64 %29, ptr %9, align 8, !tbaa !26
  store i32 0, ptr %10, align 4, !tbaa !27
  %30 = sub nsw i32 17, %.013.i.i
  br label %_ZN6icu_776number4impl15DecimalQuantity9_setToIntEi.exit

_ZN6icu_776number4impl15DecimalQuantity9_setToIntEi.exit: ; preds = %.thread.thread, %_ZN6icu_776number4impl15DecimalQuantity12readIntToBcdEi.exit.i
  %.sink.i = phi i32 [ %30, %_ZN6icu_776number4impl15DecimalQuantity12readIntToBcdEi.exit.i ], [ 10, %.thread.thread ]
  store i32 %.sink.i, ptr %11, align 8, !tbaa !28
  tail call void @_ZN6icu_776number4impl15DecimalQuantity7compactEv(ptr noundef nonnull align 8 dereferenceable(66) %0)
  br label %31

31:                                               ; preds = %_ZN6icu_776number4impl15DecimalQuantity9_setToIntEi.exit, %21
  ret ptr %0
}